target datalayout = "e-m:e-p270:32:32-p271:32:32-p272:64:64-i64:64-i128:128-f80:128-n8:16:32:64-S128"
target triple = "x86_64-pc-linux-gnu"

%struct.aiString = type { i32, [1024 x i8] }
%struct.aiMaterial = type { ptr, i32, i32 }
%struct.aiMaterialProperty = type { %struct.aiString, i32, i32, i32, i32, ptr }

; Function Attrs: mustprogress nounwind uwtable
define linkonce_odr hidden void @_ZN8aiStringC2Ev(ptr noundef nonnull align 4 dereferenceable(1028) %0) unnamed_addr #4 comdat align 2 {
  %2 = alloca ptr, align 8
  store ptr %0, ptr %2, align 8
  %3 = load ptr, ptr %2, align 8
  %4 = getelementptr inbounds nuw %struct.aiString, ptr %3, i32 0, i32 0
  store i32 0, ptr %4, align 4
  %5 = getelementptr inbounds nuw %struct.aiString, ptr %3, i32 0, i32 1
  call void @llvm.memset.p0.i64(ptr align 4 %5, i8 0, i64 1024, i1 false)
  ret void
}

; Function Attrs: mustprogress nounwind uwtable
define linkonce_odr hidden noundef nonnull align 4 dereferenceable(1028) ptr @_ZN8aiStringaSERKS_(ptr noundef nonnull align 4 dereferenceable(1028) %0, ptr noundef nonnull align 4 dereferenceable(1028) %1) #4 comdat align 2 {
  %3 = alloca ptr, align 8
  %4 = alloca ptr, align 8
  %5 = alloca ptr, align 8
  store ptr %0, ptr %4, align 8
  store ptr %1, ptr %5, align 8
  %6 = load ptr, ptr %4, align 8
  %7 = load ptr, ptr %5, align 8
  %8 = icmp eq ptr %6, %7
  br i1 %8, label %9, label %10

9:                                                ; preds = %2
  store ptr %6, ptr %3, align 8
  br label %35

10:                                               ; preds = %2
  %11 = load ptr, ptr %5, align 8
  %12 = getelementptr inbounds nuw %struct.aiString, ptr %11, i32 0, i32 0
  %13 = load i32, ptr %12, align 4
  %14 = getelementptr inbounds nuw %struct.aiString, ptr %6, i32 0, i32 0
  store i32 %13, ptr %14, align 4
  %15 = getelementptr inbounds nuw %struct.aiString, ptr %6, i32 0, i32 0
  %16 = load i32, ptr %15, align 4
  %17 = zext i32 %16 to i64
  %18 = icmp ugt i64 %17, 1023
  br i1 %18, label %19, label %21

19:                                               ; preds = %10
  %20 = getelementptr inbounds nuw %struct.aiString, ptr %6, i32 0, i32 0
  store i32 1023, ptr %20, align 4
  br label %21

21:                                               ; preds = %19, %10
  %22 = getelementptr inbounds nuw %struct.aiString, ptr %6, i32 0, i32 1
  %23 = getelementptr inbounds [1024 x i8], ptr %22, i64 0, i64 0
  %24 = load ptr, ptr %5, align 8
  %25 = getelementptr inbounds nuw %struct.aiString, ptr %24, i32 0, i32 1
  %26 = getelementptr inbounds [1024 x i8], ptr %25, i64 0, i64 0
  %27 = getelementptr inbounds nuw %struct.aiString, ptr %6, i32 0, i32 0
  %28 = load i32, ptr %27, align 4
  %29 = zext i32 %28 to i64
  call void @llvm.memcpy.p0.p0.i64(ptr align 4 %23, ptr align 4 %26, i64 %29, i1 false)
  %30 = getelementptr inbounds nuw %struct.aiString, ptr %6, i32 0, i32 1
  %31 = getelementptr inbounds nuw %struct.aiString, ptr %6, i32 0, i32 0
  %32 = load i32, ptr %31, align 4
  %33 = zext i32 %32 to i64
  %34 = getelementptr inbounds nuw [1024 x i8], ptr %30, i64 0, i64 %33
  store i8 0, ptr %34, align 1
  store ptr %6, ptr %3, align 8
  br label %35

35:                                               ; preds = %21, %9
  %36 = load ptr, ptr %3, align 8
  ret ptr %36
}

; Function Attrs: mustprogress nounwind uwtable
define linkonce_odr hidden void @_ZN18aiMaterialPropertyC2Ev(ptr noundef nonnull align 8 dereferenceable(1056) %0) unnamed_addr #4 comdat align 2 {
  %2 = alloca ptr, align 8
  store ptr %0, ptr %2, align 8
  %3 = load ptr, ptr %2, align 8
  %4 = getelementptr inbounds nuw %struct.aiMaterialProperty, ptr %3, i32 0, i32 0
  call void @_ZN8aiStringC2Ev(ptr noundef nonnull align 4 dereferenceable(1028) %4) #17
  %5 = getelementptr inbounds nuw %struct.aiMaterialProperty, ptr %3, i32 0, i32 1
  store i32 0, ptr %5, align 4
  %6 = getelementptr inbounds nuw %struct.aiMaterialProperty, ptr %3, i32 0, i32 2
  store i32 0, ptr %6, align 8
  %7 = getelementptr inbounds nuw %struct.aiMaterialProperty, ptr %3, i32 0, i32 3
  store i32 0, ptr %7, align 4
  %8 = getelementptr inbounds nuw %struct.aiMaterialProperty, ptr %3, i32 0, i32 4
  store i32 1, ptr %8, align 8
  %9 = getelementptr inbounds nuw %struct.aiMaterialProperty, ptr %3, i32 0, i32 5
  store ptr null, ptr %9, align 8
  ret void
}

; Function Attrs: mustprogress uwtable
define void @_ZN6Assimp13SceneCombiner4CopyEPP10aiMaterialPKS1_(ptr noundef %0, ptr noundef %1) #0 align 2 personality ptr @__gxx_personality_v0 {
  %3 = alloca ptr, align 8
  %4 = alloca ptr, align 8
  %5 = alloca ptr, align 8
  %6 = alloca ptr, align 8
  %7 = alloca i32, align 4
  %8 = alloca i32, align 4
  %9 = alloca ptr, align 8
  %10 = alloca ptr, align 8
  store ptr %0, ptr %3, align 8
  store ptr %1, ptr %4, align 8
  %11 = load ptr, ptr %3, align 8
  %12 = icmp eq ptr null, %11
  br i1 %12, label %16, label %13

13:                                               ; preds = %2
  %14 = load ptr, ptr %4, align 8
  %15 = icmp eq ptr null, %14
  br i1 %15, label %16, label %17

16:                                               ; preds = %13, %2
  br label %121

17:                                               ; preds = %13
  call void @llvm.lifetime.start.p0(i64 8, ptr %5) #17
  %18 = call noalias noundef nonnull ptr @_Znwm(i64 noundef 16) #19
  invoke void @_ZN10aiMaterialC1Ev(ptr noundef nonnull align 8 dereferenceable(16) %18)
          to label %19 unwind label %56

19:                                               ; preds = %17
  %20 = load ptr, ptr %3, align 8
  store ptr %18, ptr %20, align 8
  store ptr %18, ptr %5, align 8
  %21 = load ptr, ptr %5, align 8
  call void @_ZN10aiMaterial5ClearEv(ptr noundef nonnull align 8 dereferenceable(16) %21)
  %22 = load ptr, ptr %5, align 8
  %23 = getelementptr inbounds nuw %struct.aiMaterial, ptr %22, i32 0, i32 0
  %24 = load ptr, ptr %23, align 8
  %25 = icmp eq ptr %24, null
  br i1 %25, label %27, label %26

26:                                               ; preds = %19
  call void @_ZdaPv(ptr noundef %24) #20
  br label %27

27:                                               ; preds = %26, %19
  %28 = load ptr, ptr %4, align 8
  %29 = getelementptr inbounds nuw %struct.aiMaterial, ptr %28, i32 0, i32 2
  %30 = load i32, ptr %29, align 4
  %31 = load ptr, ptr %5, align 8
  %32 = getelementptr inbounds nuw %struct.aiMaterial, ptr %31, i32 0, i32 2
  store i32 %30, ptr %32, align 4
  %33 = load ptr, ptr %4, align 8
  %34 = getelementptr inbounds nuw %struct.aiMaterial, ptr %33, i32 0, i32 1
  %35 = load i32, ptr %34, align 8
  %36 = load ptr, ptr %5, align 8
  %37 = getelementptr inbounds nuw %struct.aiMaterial, ptr %36, i32 0, i32 1
  store i32 %35, ptr %37, align 8
  %38 = load ptr, ptr %5, align 8
  %39 = getelementptr inbounds nuw %struct.aiMaterial, ptr %38, i32 0, i32 2
  %40 = load i32, ptr %39, align 4
  %41 = zext i32 %40 to i64
  %42 = call { i64, i1 } @llvm.umul.with.overflow.i64(i64 %41, i64 8)
  %43 = extractvalue { i64, i1 } %42, 1
  %44 = extractvalue { i64, i1 } %42, 0
  %45 = select i1 %43, i64 -1, i64 %44
  %46 = call noalias noundef nonnull ptr @_Znam(i64 noundef %45) #19
  %47 = load ptr, ptr %5, align 8
  %48 = getelementptr inbounds nuw %struct.aiMaterial, ptr %47, i32 0, i32 0
  store ptr %46, ptr %48, align 8
  call void @llvm.lifetime.start.p0(i64 4, ptr %8) #17
  store i32 0, ptr %8, align 4
  br label %49

49:                                               ; preds = %117, %27
  %50 = load i32, ptr %8, align 4
  %51 = load ptr, ptr %5, align 8
  %52 = getelementptr inbounds nuw %struct.aiMaterial, ptr %51, i32 0, i32 1
  %53 = load i32, ptr %52, align 8
  %54 = icmp ult i32 %50, %53
  br i1 %54, label %60, label %55

55:                                               ; preds = %49
  call void @llvm.lifetime.end.p0(i64 4, ptr %8) #17
  br label %120

56:                                               ; preds = %17
  %57 = landingpad { ptr, i32 }
          cleanup
  %58 = extractvalue { ptr, i32 } %57, 0
  store ptr %58, ptr %6, align 8
  %59 = extractvalue { ptr, i32 } %57, 1
  store i32 %59, ptr %7, align 4
  call void @_ZdlPvm(ptr noundef %18, i64 noundef 16) #20
  call void @llvm.lifetime.end.p0(i64 8, ptr %5) #17
  br label %122

60:                                               ; preds = %49
  call void @llvm.lifetime.start.p0(i64 8, ptr %9) #17
  %61 = call noalias noundef nonnull ptr @_Znwm(i64 noundef 1056) #19
  call void @_ZN18aiMaterialPropertyC2Ev(ptr noundef nonnull align 8 dereferenceable(1056) %61) #17
  %62 = load ptr, ptr %5, align 8
  %63 = getelementptr inbounds nuw %struct.aiMaterial, ptr %62, i32 0, i32 0
  %64 = load ptr, ptr %63, align 8
  %65 = load i32, ptr %8, align 4
  %66 = zext i32 %65 to i64
  %67 = getelementptr inbounds nuw ptr, ptr %64, i64 %66
  store ptr %61, ptr %67, align 8
  store ptr %61, ptr %9, align 8
  call void @llvm.lifetime.start.p0(i64 8, ptr %10) #17
  %68 = load ptr, ptr %4, align 8
  %69 = getelementptr inbounds nuw %struct.aiMaterial, ptr %68, i32 0, i32 0
  %70 = load ptr, ptr %69, align 8
  %71 = load i32, ptr %8, align 4
  %72 = zext i32 %71 to i64
  %73 = getelementptr inbounds nuw ptr, ptr %70, i64 %72
  %74 = load ptr, ptr %73, align 8
  store ptr %74, ptr %10, align 8
  %75 = load ptr, ptr %10, align 8
  %76 = getelementptr inbounds nuw %struct.aiMaterialProperty, ptr %75, i32 0, i32 3
  %77 = load i32, ptr %76, align 4
  %78 = load ptr, ptr %9, align 8
  %79 = getelementptr inbounds nuw %struct.aiMaterialProperty, ptr %78, i32 0, i32 3
  store i32 %77, ptr %79, align 4
  %80 = load ptr, ptr %9, align 8
  %81 = getelementptr inbounds nuw %struct.aiMaterialProperty, ptr %80, i32 0, i32 3
  %82 = load i32, ptr %81, align 4
  %83 = zext i32 %82 to i64
  %84 = call noalias noundef nonnull ptr @_Znam(i64 noundef %83) #19
  %85 = load ptr, ptr %9, align 8
  %86 = getelementptr inbounds nuw %struct.aiMaterialProperty, ptr %85, i32 0, i32 5
  store ptr %84, ptr %86, align 8
  %87 = load ptr, ptr %9, align 8
  %88 = getelementptr inbounds nuw %struct.aiMaterialProperty, ptr %87, i32 0, i32 5
  %89 = load ptr, ptr %88, align 8
  %90 = load ptr, ptr %10, align 8
  %91 = getelementptr inbounds nuw %struct.aiMaterialProperty, ptr %90, i32 0, i32 5
  %92 = load ptr, ptr %91, align 8
  %93 = load ptr, ptr %9, align 8
  %94 = getelementptr inbounds nuw %struct.aiMaterialProperty, ptr %93, i32 0, i32 3
  %95 = load i32, ptr %94, align 4
  %96 = zext i32 %95 to i64
  call void @llvm.memcpy.p0.p0.i64(ptr align 1 %89, ptr align 1 %92, i64 %96, i1 false)
  %97 = load ptr, ptr %10, align 8
  %98 = getelementptr inbounds nuw %struct.aiMaterialProperty, ptr %97, i32 0, i32 2
  %99 = load i32, ptr %98, align 8
  %100 = load ptr, ptr %9, align 8
  %101 = getelementptr inbounds nuw %struct.aiMaterialProperty, ptr %100, i32 0, i32 2
  store i32 %99, ptr %101, align 8
  %102 = load ptr, ptr %10, align 8
  %103 = getelementptr inbounds nuw %struct.aiMaterialProperty, ptr %102, i32 0, i32 1
  %104 = load i32, ptr %103, align 4
  %105 = load ptr, ptr %9, align 8
  %106 = getelementptr inbounds nuw %struct.aiMaterialProperty, ptr %105, i32 0, i32 1
  store i32 %104, ptr %106, align 4
  %107 = load ptr, ptr %10, align 8
  %108 = getelementptr inbounds nuw %struct.aiMaterialProperty, ptr %107, i32 0, i32 0
  %109 = load ptr, ptr %9, align 8
  %110 = getelementptr inbounds nuw %struct.aiMaterialProperty, ptr %109, i32 0, i32 0
  %111 = call noundef nonnull align 4 dereferenceable(1028) ptr @_ZN8aiStringaSERKS_(ptr noundef nonnull align 4 dereferenceable(1028) %110, ptr noundef nonnull align 4 dereferenceable(1028) %108)
  %112 = load ptr, ptr %10, align 8
  %113 = getelementptr inbounds nuw %struct.aiMaterialProperty, ptr %112, i32 0, i32 4
  %114 = load i32, ptr %113, align 8
  %115 = load ptr, ptr %9, align 8
  %116 = getelementptr inbounds nuw %struct.aiMaterialProperty, ptr %115, i32 0, i32 4
  store i32 %114, ptr %116, align 8
  call void @llvm.lifetime.end.p0(i64 8, ptr %10) #17
  call void @llvm.lifetime.end.p0(i64 8, ptr %9) #17
  br label %117

117:                                              ; preds = %60
  %118 = load i32, ptr %8, align 4
  %119 = add i32 %118, 1
  store i32 %119, ptr %8, align 4
  br label %49, !llvm.loop !41

120:                                              ; preds = %55
  call void @llvm.lifetime.end.p0(i64 8, ptr %5) #17
  br label %121

121:                                              ; preds = %120, %16
  ret void

122:                                              ; preds = %56
  %123 = load ptr, ptr %6, align 8
  %124 = load i32, ptr %7, align 4
  %125 = insertvalue { ptr, i32 } poison, ptr %123, 0
  %126 = insertvalue { ptr, i32 } %125, i32 %124, 1
  resume { ptr, i32 } %126
}