; Function Attrs: mustprogress uwtable
define void @_ZN6Assimp13SceneCombiner4CopyEPP10aiMaterialPKS1_(ptr noundef writeonly captures(address_is_null) %0, ptr noundef readonly captures(address_is_null) %1) local_unnamed_addr #0 align 2 personality ptr @__gxx_personality_v0 {
  %3 = icmp eq ptr %0, null
  %4 = icmp eq ptr %1, null
  %or.cond = or i1 %3, %4
  br i1 %or.cond, label %.loopexit, label %5

5:                                                ; preds = %2
  %6 = tail call noalias noundef nonnull dereferenceable(16) ptr @_Znwm(i64 noundef 16) #22
  invoke void @_ZN10aiMaterialC1Ev(ptr noundef nonnull align 8 dereferenceable(16) %6)
          to label %7 unwind label %21

7:                                                ; preds = %5
  store ptr %6, ptr %0, align 8
  tail call void @_ZN10aiMaterial5ClearEv(ptr noundef nonnull align 8 dereferenceable(16) %6)
  %8 = load ptr, ptr %6, align 8
  %9 = icmp eq ptr %8, null
  br i1 %9, label %11, label %10

10:                                               ; preds = %7
  tail call void @_ZdaPv(ptr noundef nonnull %8) #24
  br label %11

11:                                               ; preds = %10, %7
  %12 = getelementptr inbounds nuw i8, ptr %1, i64 12
  %13 = load i32, ptr %12, align 4
  %14 = getelementptr inbounds nuw i8, ptr %6, i64 12
  store i32 %13, ptr %14, align 4
  %15 = getelementptr inbounds nuw i8, ptr %1, i64 8
  %16 = load i32, ptr %15, align 8
  %17 = getelementptr inbounds nuw i8, ptr %6, i64 8
  store i32 %16, ptr %17, align 8
  %18 = zext i32 %13 to i64
  %19 = shl nuw nsw i64 %18, 3
  %20 = tail call noalias noundef nonnull ptr @_Znam(i64 noundef %19) #22
  store ptr %20, ptr %6, align 8
  %.not = icmp eq i32 %16, 0
  br i1 %.not, label %.loopexit, label %.lr.ph

21:                                               ; preds = %5
  %22 = landingpad { ptr, i32 }
          cleanup
  tail call void @_ZdlPvm(ptr noundef nonnull %6, i64 noundef 16) #24
  resume { ptr, i32 } %22

.lr.ph:                                           ; preds = %11, %_ZN8aiStringaSERKS_.exit
  %indvars.iv = phi i64 [ %indvars.iv.next, %_ZN8aiStringaSERKS_.exit ], [ 0, %11 ]
  %23 = tail call noalias noundef nonnull dereferenceable(1056) ptr @_Znwm(i64 noundef 1056) #22
  %24 = getelementptr inbounds nuw i8, ptr %23, i64 1040
  tail call void @llvm.memset.p0.i64(ptr noundef nonnull align 8 dereferenceable(1056) %23, i8 0, i64 1040, i1 false)
  store i32 1, ptr %24, align 8
  %25 = getelementptr inbounds nuw i8, ptr %23, i64 1048
  store ptr null, ptr %25, align 8
  %26 = load ptr, ptr %6, align 8
  %27 = getelementptr inbounds nuw ptr, ptr %26, i64 %indvars.iv
  store ptr %23, ptr %27, align 8
  %28 = load ptr, ptr %1, align 8
  %29 = getelementptr inbounds nuw ptr, ptr %28, i64 %indvars.iv
  %30 = load ptr, ptr %29, align 8
  %31 = getelementptr inbounds nuw i8, ptr %30, i64 1036
  %32 = load i32, ptr %31, align 4
  %33 = getelementptr inbounds nuw i8, ptr %23, i64 1036
  store i32 %32, ptr %33, align 4
  %34 = zext i32 %32 to i64
  %35 = tail call noalias noundef nonnull ptr @_Znam(i64 noundef %34) #22
  store ptr %35, ptr %25, align 8
  %36 = getelementptr inbounds nuw i8, ptr %30, i64 1048
  %37 = load ptr, ptr %36, align 8
  tail call void @llvm.memcpy.p0.p0.i64(ptr nonnull align 1 %35, ptr align 1 %37, i64 %34, i1 false)
  %38 = getelementptr inbounds nuw i8, ptr %30, i64 1032
  %39 = load i32, ptr %38, align 8
  %40 = getelementptr inbounds nuw i8, ptr %23, i64 1032
  store i32 %39, ptr %40, align 8
  %41 = getelementptr inbounds nuw i8, ptr %30, i64 1028
  %42 = load i32, ptr %41, align 4
  %43 = getelementptr inbounds nuw i8, ptr %23, i64 1028
  store i32 %42, ptr %43, align 4
  %44 = icmp eq ptr %23, %30
  br i1 %44, label %_ZN8aiStringaSERKS_.exit, label %45

45:                                               ; preds = %.lr.ph
  %46 = load i32, ptr %30, align 4
  %spec.select.i = tail call i32 @llvm.umin.i32(i32 %46, i32 1023)
  store i32 %spec.select.i, ptr %23, align 4
  %47 = getelementptr inbounds nuw i8, ptr %23, i64 4
  %48 = getelementptr inbounds nuw i8, ptr %30, i64 4
  %49 = zext nneg i32 %spec.select.i to i64
  tail call void @llvm.memcpy.p0.p0.i64(ptr nonnull align 4 %47, ptr nonnull align 4 %48, i64 %49, i1 false)
  %50 = getelementptr inbounds nuw [1024 x i8], ptr %47, i64 0, i64 %49
  store i8 0, ptr %50, align 1
  br label %_ZN8aiStringaSERKS_.exit

_ZN8aiStringaSERKS_.exit:                         ; preds = %.lr.ph, %45
  %51 = getelementptr inbounds nuw i8, ptr %30, i64 1040
  %52 = load i32, ptr %51, align 8
  store i32 %52, ptr %24, align 8
  %indvars.iv.next = add nuw nsw i64 %indvars.iv, 1
  %53 = load i32, ptr %17, align 8
  %54 = zext i32 %53 to i64
  %55 = icmp samesign ult i64 %indvars.iv.next, %54
  br i1 %55, label %.lr.ph, label %.loopexit, !llvm.loop !58

.loopexit:                                        ; preds = %_ZN8aiStringaSERKS_.exit, %11, %2
  ret void
}